target datalayout = "e-m:e-p270:32:32-p271:32:32-p272:64:64-i64:64-i128:128-f80:128-n8:16:32:64-S128"
target triple = "x86_64-pc-linux-gnu"

%"struct.absl::cord_internal::CordRep" = type { i64, %"class.absl::cord_internal::RefcountAndFlags", i8, [3 x i8] }
%"class.absl::cord_internal::RefcountAndFlags" = type { %"struct.std::atomic" }
%"struct.std::atomic" = type { %"struct.std::__atomic_base" }
%"struct.std::__atomic_base" = type { i32 }
%"struct.absl::cord_internal::CordRepSubstring" = type { %"struct.absl::cord_internal::CordRep", i64, ptr }

; Function Attrs: mustprogress nounwind uwtable
define linkonce_odr dso_local void @_ZNSt13__atomic_baseIiEC2Ei(ptr noundef nonnull align 4 dereferenceable(4) %0, i32 noundef %1) unnamed_addr #7 comdat align 2 {
  %3 = alloca ptr, align 8
  %4 = alloca i32, align 4
  store ptr %0, ptr %3, align 8, !tbaa !50
  store i32 %1, ptr %4, align 4, !tbaa !11
  %5 = load ptr, ptr %3, align 8
  %6 = getelementptr inbounds nuw %"struct.std::__atomic_base", ptr %5, i32 0, i32 0
  %7 = load i32, ptr %4, align 4, !tbaa !11
  store i32 %7, ptr %6, align 4, !tbaa !52
  ret void
}

; Function Attrs: mustprogress nounwind uwtable
define linkonce_odr dso_local void @_ZNSt6atomicIiEC2Ei(ptr noundef nonnull align 4 dereferenceable(4) %0, i32 noundef %1) unnamed_addr #7 comdat align 2 {
  %3 = alloca ptr, align 8
  %4 = alloca i32, align 4
  store ptr %0, ptr %3, align 8, !tbaa !48
  store i32 %1, ptr %4, align 4, !tbaa !11
  %5 = load ptr, ptr %3, align 8
  %6 = load i32, ptr %4, align 4, !tbaa !11
  call void @_ZNSt13__atomic_baseIiEC2Ei(ptr noundef nonnull align 4 dereferenceable(4) %5, i32 noundef %6) #3
  ret void
}

; Function Attrs: mustprogress nounwind uwtable
define linkonce_odr dso_local void @_ZN4absl13cord_internal16RefcountAndFlagsC2Ev(ptr noundef nonnull align 4 dereferenceable(4) %0) unnamed_addr #7 comdat align 2 {
  %2 = alloca ptr, align 8
  store ptr %0, ptr %2, align 8, !tbaa !46
  %3 = load ptr, ptr %2, align 8
  %4 = getelementptr inbounds nuw %"class.absl::cord_internal::RefcountAndFlags", ptr %3, i32 0, i32 0
  call void @_ZNSt6atomicIiEC2Ei(ptr noundef nonnull align 4 dereferenceable(4) %4, i32 noundef 2) #3
  ret void
}

; Function Attrs: alwaysinline mustprogress nounwind uwtable
define linkonce_odr dso_local noundef i32 @_ZNSt13__atomic_baseIiE9fetch_addEiSt12memory_order(ptr noundef nonnull align 4 dereferenceable(4) %0, i32 noundef %1, i32 noundef %2) #13 comdat align 2 {
  %4 = alloca ptr, align 8
  %5 = alloca i32, align 4
  %6 = alloca i32, align 4
  %7 = alloca i32, align 4
  %8 = alloca i32, align 4
  store ptr %0, ptr %4, align 8, !tbaa !50
  store i32 %1, ptr %5, align 4, !tbaa !11
  store i32 %2, ptr %6, align 4, !tbaa !53
  %9 = load ptr, ptr %4, align 8
  %10 = getelementptr inbounds nuw %"struct.std::__atomic_base", ptr %9, i32 0, i32 0
  %11 = load i32, ptr %6, align 4, !tbaa !53
  %12 = load i32, ptr %5, align 4, !tbaa !11
  store i32 %12, ptr %7, align 4, !tbaa !11
  switch i32 %11, label %13 [
    i32 1, label %16
    i32 2, label %16
    i32 3, label %19
    i32 4, label %22
    i32 5, label %25
  ]

13:                                               ; preds = %3
  %14 = load i32, ptr %7, align 4
  %15 = atomicrmw add ptr %10, i32 %14 monotonic, align 4
  store i32 %15, ptr %8, align 4
  br label %28

16:                                               ; preds = %3, %3
  %17 = load i32, ptr %7, align 4
  %18 = atomicrmw add ptr %10, i32 %17 acquire, align 4
  store i32 %18, ptr %8, align 4
  br label %28

19:                                               ; preds = %3
  %20 = load i32, ptr %7, align 4
  %21 = atomicrmw add ptr %10, i32 %20 release, align 4
  store i32 %21, ptr %8, align 4
  br label %28

22:                                               ; preds = %3
  %23 = load i32, ptr %7, align 4
  %24 = atomicrmw add ptr %10, i32 %23 acq_rel, align 4
  store i32 %24, ptr %8, align 4
  br label %28

25:                                               ; preds = %3
  %26 = load i32, ptr %7, align 4
  %27 = atomicrmw add ptr %10, i32 %26 seq_cst, align 4
  store i32 %27, ptr %8, align 4
  br label %28

28:                                               ; preds = %25, %22, %19, %16, %13
  %29 = load i32, ptr %8, align 4, !tbaa !11
  ret i32 %29
}

; Function Attrs: mustprogress uwtable
define linkonce_odr dso_local void @_ZN4absl13cord_internal7CordRepC2Ev(ptr noundef nonnull align 8 dereferenceable(16) %0) unnamed_addr #4 comdat align 2 {
  %2 = alloca ptr, align 8
  store ptr %0, ptr %2, align 8, !tbaa !16
  %3 = load ptr, ptr %2, align 8
  %4 = getelementptr inbounds nuw %"struct.absl::cord_internal::CordRep", ptr %3, i32 0, i32 1
  call void @_ZN4absl13cord_internal16RefcountAndFlagsC2Ev(ptr noundef nonnull align 4 dereferenceable(4) %4)
  ret void
}

; Function Attrs: inlinehint mustprogress nounwind uwtable
define linkonce_odr dso_local void @_ZN4absl13cord_internal16RefcountAndFlags9IncrementEv(ptr noundef nonnull align 4 dereferenceable(4) %0) #6 comdat align 2 {
  %2 = alloca ptr, align 8
  store ptr %0, ptr %2, align 8, !tbaa !46
  %3 = load ptr, ptr %2, align 8
  %4 = getelementptr inbounds nuw %"class.absl::cord_internal::RefcountAndFlags", ptr %3, i32 0, i32 0
  %5 = call noundef i32 @_ZNSt13__atomic_baseIiE9fetch_addEiSt12memory_order(ptr noundef nonnull align 4 dereferenceable(4) %4, i32 noundef 2, i32 noundef 0) #3
  ret void
}

; Function Attrs: inlinehint mustprogress uwtable
define linkonce_odr dso_local void @_ZN4absl13cord_internal16CordRepSubstringC2Ev(ptr noundef nonnull align 8 dereferenceable(32) %0) unnamed_addr #8 comdat align 2 {
  %2 = alloca ptr, align 8
  store ptr %0, ptr %2, align 8, !tbaa !44
  %3 = load ptr, ptr %2, align 8
  call void @_ZN4absl13cord_internal7CordRepC2Ev(ptr noundef nonnull align 8 dereferenceable(16) %3)
  ret void
}

; Function Attrs: inlinehint mustprogress nounwind uwtable
define linkonce_odr dso_local noundef ptr @_ZN4absl13cord_internal7CordRep9substringEv(ptr noundef nonnull align 8 dereferenceable(16) %0) #6 comdat align 2 {
  %2 = alloca ptr, align 8
  store ptr %0, ptr %2, align 8, !tbaa !16
  %3 = load ptr, ptr %2, align 8
  ret ptr %3
}

; Function Attrs: inlinehint mustprogress uwtable
define linkonce_odr dso_local noundef ptr @_ZN4absl13cord_internal7CordRep3RefEPS1_(ptr noundef %0) #8 comdat align 2 {
  %2 = alloca ptr, align 8
  store ptr %0, ptr %2, align 8, !tbaa !16
  %3 = load ptr, ptr %2, align 8, !tbaa !16
  %4 = icmp ne ptr %3, null
  call void @llvm.assume(i1 %4)
  %5 = load ptr, ptr %2, align 8, !tbaa !16
  %6 = getelementptr inbounds nuw %"struct.absl::cord_internal::CordRep", ptr %5, i32 0, i32 1
  call void @_ZN4absl13cord_internal16RefcountAndFlags9IncrementEv(ptr noundef nonnull align 4 dereferenceable(4) %6)
  %7 = load ptr, ptr %2, align 8, !tbaa !16
  ret ptr %7
}

; Function Attrs: inlinehint mustprogress uwtable
define internal noundef ptr @_ZN4absl13cord_internal12_GLOBAL__N_19SubstringEPNS0_7CordRepEmm(ptr noundef %0, i64 noundef %1, i64 noundef %2) #8 personality ptr @__gxx_personality_v0 {
  %4 = alloca ptr, align 8
  %5 = alloca ptr, align 8
  %6 = alloca i64, align 8
  %7 = alloca i64, align 8
  %8 = alloca ptr, align 8
  %9 = alloca ptr, align 8
  %10 = alloca i32, align 4
  store ptr %0, ptr %5, align 8, !tbaa !16
  store i64 %1, ptr %6, align 8, !tbaa !9
  store i64 %2, ptr %7, align 8, !tbaa !9
  %11 = load i64, ptr %7, align 8, !tbaa !9
  %12 = icmp eq i64 %11, 0
  br i1 %12, label %13, label %14

13:                                               ; preds = %3
  store ptr null, ptr %4, align 8
  br label %60

14:                                               ; preds = %3
  %15 = load i64, ptr %7, align 8, !tbaa !9
  %16 = load ptr, ptr %5, align 8, !tbaa !16
  %17 = getelementptr inbounds nuw %"struct.absl::cord_internal::CordRep", ptr %16, i32 0, i32 0
  %18 = load i64, ptr %17, align 8, !tbaa !18
  %19 = icmp eq i64 %15, %18
  br i1 %19, label %20, label %23

20:                                               ; preds = %14
  %21 = load ptr, ptr %5, align 8, !tbaa !16
  %22 = call noundef ptr @_ZN4absl13cord_internal7CordRep3RefEPS1_(ptr noundef %21)
  store ptr %22, ptr %4, align 8
  br label %60

23:                                               ; preds = %14
  %24 = load ptr, ptr %5, align 8, !tbaa !16
  %25 = getelementptr inbounds nuw %"struct.absl::cord_internal::CordRep", ptr %24, i32 0, i32 2
  %26 = load i8, ptr %25, align 4, !tbaa !40
  %27 = zext i8 %26 to i32
  %28 = icmp eq i32 %27, 1
  br i1 %28, label %29, label %40

29:                                               ; preds = %23
  %30 = load ptr, ptr %5, align 8, !tbaa !16
  %31 = call noundef ptr @_ZN4absl13cord_internal7CordRep9substringEv(ptr noundef nonnull align 8 dereferenceable(16) %30)
  %32 = getelementptr inbounds nuw %"struct.absl::cord_internal::CordRepSubstring", ptr %31, i32 0, i32 1
  %33 = load i64, ptr %32, align 8, !tbaa !41
  %34 = load i64, ptr %6, align 8, !tbaa !9
  %35 = add i64 %34, %33
  store i64 %35, ptr %6, align 8, !tbaa !9
  %36 = load ptr, ptr %5, align 8, !tbaa !16
  %37 = call noundef ptr @_ZN4absl13cord_internal7CordRep9substringEv(ptr noundef nonnull align 8 dereferenceable(16) %36)
  %38 = getelementptr inbounds nuw %"struct.absl::cord_internal::CordRepSubstring", ptr %37, i32 0, i32 2
  %39 = load ptr, ptr %38, align 8, !tbaa !43
  store ptr %39, ptr %5, align 8, !tbaa !16
  br label %40

40:                                               ; preds = %29, %23
  call void @llvm.lifetime.start.p0(i64 8, ptr %8) #3
  %41 = call noalias noundef nonnull ptr @_Znwm(i64 noundef 32) #15
  call void @llvm.memset.p0.i64(ptr align 16 %41, i8 0, i64 32, i1 false)
  invoke void @_ZN4absl13cord_internal16CordRepSubstringC2Ev(ptr noundef nonnull align 8 dereferenceable(32) %41)
          to label %42 unwind label %56

42:                                               ; preds = %40
  store ptr %41, ptr %8, align 8, !tbaa !44
  %43 = load i64, ptr %7, align 8, !tbaa !9
  %44 = load ptr, ptr %8, align 8, !tbaa !44
  %45 = getelementptr inbounds nuw %"struct.absl::cord_internal::CordRep", ptr %44, i32 0, i32 0
  store i64 %43, ptr %45, align 8, !tbaa !18
  %46 = load ptr, ptr %8, align 8, !tbaa !44
  %47 = getelementptr inbounds nuw %"struct.absl::cord_internal::CordRep", ptr %46, i32 0, i32 2
  store i8 1, ptr %47, align 4, !tbaa !40
  %48 = load i64, ptr %6, align 8, !tbaa !9
  %49 = load ptr, ptr %8, align 8, !tbaa !44
  %50 = getelementptr inbounds nuw %"struct.absl::cord_internal::CordRepSubstring", ptr %49, i32 0, i32 1
  store i64 %48, ptr %50, align 8, !tbaa !41
  %51 = load ptr, ptr %5, align 8, !tbaa !16
  %52 = call noundef ptr @_ZN4absl13cord_internal7CordRep3RefEPS1_(ptr noundef %51)
  %53 = load ptr, ptr %8, align 8, !tbaa !44
  %54 = getelementptr inbounds nuw %"struct.absl::cord_internal::CordRepSubstring", ptr %53, i32 0, i32 2
  store ptr %52, ptr %54, align 8, !tbaa !43
  %55 = load ptr, ptr %8, align 8, !tbaa !44
  store ptr %55, ptr %4, align 8
  call void @llvm.lifetime.end.p0(i64 8, ptr %8) #3
  br label %60

56:                                               ; preds = %40
  %57 = landingpad { ptr, i32 }
          cleanup
  %58 = extractvalue { ptr, i32 } %57, 0
  store ptr %58, ptr %9, align 8
  %59 = extractvalue { ptr, i32 } %57, 1
  store i32 %59, ptr %10, align 4
  call void @_ZdlPvm(ptr noundef %41, i64 noundef 32) #16
  call void @llvm.lifetime.end.p0(i64 8, ptr %8) #3
  br label %62

60:                                               ; preds = %42, %20, %13
  %61 = load ptr, ptr %4, align 8
  ret ptr %61

62:                                               ; preds = %56
  %63 = load ptr, ptr %9, align 8
  %64 = load i32, ptr %10, align 4
  %65 = insertvalue { ptr, i32 } poison, ptr %63, 0
  %66 = insertvalue { ptr, i32 } %65, i32 %64, 1
  resume { ptr, i32 } %66
}