; Function Attrs: inlinehint mustprogress uwtable
define internal fastcc noundef ptr @_ZN4absl13cord_internal12_GLOBAL__N_19SubstringEPNS0_7CordRepEmm(ptr noundef %0, i64 noundef %1, i64 noundef %2) unnamed_addr #5 personality ptr @__gxx_personality_v0 {
  %4 = icmp eq i64 %2, 0
  br i1 %4, label %30, label %5

5:                                                ; preds = %3
  %6 = load i64, ptr %0, align 8, !tbaa !12
  %7 = icmp eq i64 %2, %6
  br i1 %7, label %8, label %11

8:                                                ; preds = %5
  %9 = getelementptr inbounds nuw i8, ptr %0, i64 8
  %10 = atomicrmw add ptr %9, i32 2 monotonic, align 4
  br label %30

11:                                               ; preds = %5
  %12 = getelementptr inbounds nuw i8, ptr %0, i64 12
  %13 = load i8, ptr %12, align 4, !tbaa !24
  %14 = icmp eq i8 %13, 1
  br i1 %14, label %15, label %21

15:                                               ; preds = %11
  %16 = getelementptr inbounds nuw i8, ptr %0, i64 16
  %17 = load i64, ptr %16, align 8, !tbaa !25
  %18 = add i64 %17, %1
  %19 = getelementptr inbounds nuw i8, ptr %0, i64 24
  %20 = load ptr, ptr %19, align 8, !tbaa !27
  br label %21

21:                                               ; preds = %11, %15
  %.019 = phi i64 [ %18, %15 ], [ %1, %11 ]
  %.018 = phi ptr [ %20, %15 ], [ %0, %11 ]
  %22 = tail call noalias noundef nonnull dereferenceable(32) ptr @_Znwm(i64 noundef 32) #11
  tail call void @llvm.memset.p0.i64(ptr noundef nonnull align 16 dereferenceable(32) %22, i8 0, i64 16, i1 false)
  %23 = getelementptr inbounds nuw i8, ptr %22, i64 8
  store i32 2, ptr %23, align 4, !tbaa !28
  store i64 %2, ptr %22, align 8, !tbaa !12
  %24 = getelementptr inbounds nuw i8, ptr %22, i64 12
  store i8 1, ptr %24, align 4, !tbaa !24
  %25 = getelementptr inbounds nuw i8, ptr %22, i64 16
  store i64 %.019, ptr %25, align 8, !tbaa !25
  %26 = icmp ne ptr %.018, null
  tail call void @llvm.assume(i1 %26)
  %27 = getelementptr inbounds nuw i8, ptr %.018, i64 8
  %28 = atomicrmw add ptr %27, i32 2 monotonic, align 4
  %29 = getelementptr inbounds nuw i8, ptr %22, i64 24
  store ptr %.018, ptr %29, align 8, !tbaa !27
  br label %30

30:                                               ; preds = %3, %21, %8
  %.0 = phi ptr [ %0, %8 ], [ %22, %21 ], [ null, %3 ]
  ret ptr %.0
}